target datalayout = "e-m:e-p270:32:32-p271:32:32-p272:64:64-i64:64-i128:128-f80:128-n8:16:32:64-S128"
target triple = "x86_64-pc-linux-gnu"

@.str.4 = private unnamed_addr constant [4 x i8] c"int\00", align 1
@.str.12 = private unnamed_addr constant [6 x i8] c"short\00", align 1
@.str.20 = private unnamed_addr constant [5 x i8] c"char\00", align 1
@.str.24 = private unnamed_addr constant [7 x i8] c"double\00", align 1
@.str.39 = private unnamed_addr constant [7 x i8] c"ushort\00", align 1
@.str.40 = private unnamed_addr constant [5 x i8] c"long\00", align 1
@.str.41 = private unnamed_addr constant [6 x i8] c"float\00", align 1

; Function Attrs: mustprogress nounwind uwtable
define internal void @_ZL10getElementiPKcS0_PcS1_(i32 noundef %0, ptr noundef %1, ptr noundef %2, ptr noundef %3, ptr noundef %4) #7 {
  %6 = alloca i32, align 4
  %7 = alloca ptr, align 8
  %8 = alloca ptr, align 8
  %9 = alloca ptr, align 8
  %10 = alloca ptr, align 8
  %11 = alloca double, align 8
  %12 = alloca i32, align 4
  store i32 %0, ptr %6, align 4, !tbaa !9
  store ptr %1, ptr %7, align 8, !tbaa !4
  store ptr %2, ptr %8, align 8, !tbaa !4
  store ptr %3, ptr %9, align 8, !tbaa !4
  store ptr %4, ptr %10, align 8, !tbaa !4
  call void @llvm.lifetime.start.p0(i64 8, ptr %11) #16
  store double 0.000000e+00, ptr %11, align 8, !tbaa !150
  call void @llvm.lifetime.start.p0(i64 4, ptr %12) #16
  store i32 0, ptr %12, align 4, !tbaa !9
  br label %13

13:                                               ; preds = %157, %5
  %14 = load i32, ptr %12, align 4, !tbaa !9
  %15 = load i32, ptr %6, align 4, !tbaa !9
  %16 = icmp slt i32 %14, %15
  br i1 %16, label %18, label %17

17:                                               ; preds = %13
  call void @llvm.lifetime.end.p0(i64 4, ptr %12) #16
  br label %160

18:                                               ; preds = %13
  %19 = load ptr, ptr %8, align 8, !tbaa !4
  %20 = call i32 @strcmp(ptr noundef %19, ptr noundef @.str.20) #17
  %21 = icmp eq i32 %20, 0
  br i1 %21, label %22, label %28

22:                                               ; preds = %18
  %23 = load ptr, ptr %9, align 8, !tbaa !4
  %24 = load i8, ptr %23, align 1, !tbaa !11
  %25 = sitofp i8 %24 to double
  store double %25, ptr %11, align 8, !tbaa !150
  %26 = load ptr, ptr %9, align 8, !tbaa !4
  %27 = getelementptr inbounds nuw i8, ptr %26, i64 1
  store ptr %27, ptr %9, align 8, !tbaa !4
  br label %28

28:                                               ; preds = %22, %18
  %29 = load ptr, ptr %7, align 8, !tbaa !4
  %30 = call i32 @strcmp(ptr noundef %29, ptr noundef @.str.20) #17
  %31 = icmp eq i32 %30, 0
  br i1 %31, label %32, label %38

32:                                               ; preds = %28
  %33 = load double, ptr %11, align 8, !tbaa !150
  %34 = fptosi double %33 to i8
  %35 = load ptr, ptr %10, align 8, !tbaa !4
  store i8 %34, ptr %35, align 1, !tbaa !11
  %36 = load ptr, ptr %10, align 8, !tbaa !4
  %37 = getelementptr inbounds nuw i8, ptr %36, i64 1
  store ptr %37, ptr %10, align 8, !tbaa !4
  br label %38

38:                                               ; preds = %32, %28
  %39 = load ptr, ptr %8, align 8, !tbaa !4
  %40 = call i32 @strcmp(ptr noundef %39, ptr noundef @.str.12) #17
  %41 = icmp eq i32 %40, 0
  br i1 %41, label %42, label %48

42:                                               ; preds = %38
  %43 = load ptr, ptr %9, align 8, !tbaa !4
  %44 = load i16, ptr %43, align 2, !tbaa !82
  %45 = sitofp i16 %44 to double
  store double %45, ptr %11, align 8, !tbaa !150
  %46 = load ptr, ptr %9, align 8, !tbaa !4
  %47 = getelementptr inbounds nuw i8, ptr %46, i64 2
  store ptr %47, ptr %9, align 8, !tbaa !4
  br label %48

48:                                               ; preds = %42, %38
  %49 = load ptr, ptr %7, align 8, !tbaa !4
  %50 = call i32 @strcmp(ptr noundef %49, ptr noundef @.str.12) #17
  %51 = icmp eq i32 %50, 0
  br i1 %51, label %52, label %58

52:                                               ; preds = %48
  %53 = load double, ptr %11, align 8, !tbaa !150
  %54 = fptosi double %53 to i16
  %55 = load ptr, ptr %10, align 8, !tbaa !4
  store i16 %54, ptr %55, align 2, !tbaa !82
  %56 = load ptr, ptr %10, align 8, !tbaa !4
  %57 = getelementptr inbounds nuw i8, ptr %56, i64 2
  store ptr %57, ptr %10, align 8, !tbaa !4
  br label %58

58:                                               ; preds = %52, %48
  %59 = load ptr, ptr %8, align 8, !tbaa !4
  %60 = call i32 @strcmp(ptr noundef %59, ptr noundef @.str.39) #17
  %61 = icmp eq i32 %60, 0
  br i1 %61, label %62, label %68

62:                                               ; preds = %58
  %63 = load ptr, ptr %9, align 8, !tbaa !4
  %64 = load i16, ptr %63, align 2, !tbaa !82
  %65 = uitofp i16 %64 to double
  store double %65, ptr %11, align 8, !tbaa !150
  %66 = load ptr, ptr %9, align 8, !tbaa !4
  %67 = getelementptr inbounds nuw i8, ptr %66, i64 2
  store ptr %67, ptr %9, align 8, !tbaa !4
  br label %68

68:                                               ; preds = %62, %58
  %69 = load ptr, ptr %7, align 8, !tbaa !4
  %70 = call i32 @strcmp(ptr noundef %69, ptr noundef @.str.39) #17
  %71 = icmp eq i32 %70, 0
  br i1 %71, label %72, label %78

72:                                               ; preds = %68
  %73 = load double, ptr %11, align 8, !tbaa !150
  %74 = fptoui double %73 to i16
  %75 = load ptr, ptr %10, align 8, !tbaa !4
  store i16 %74, ptr %75, align 2, !tbaa !82
  %76 = load ptr, ptr %10, align 8, !tbaa !4
  %77 = getelementptr inbounds nuw i8, ptr %76, i64 2
  store ptr %77, ptr %10, align 8, !tbaa !4
  br label %78

78:                                               ; preds = %72, %68
  %79 = load ptr, ptr %8, align 8, !tbaa !4
  %80 = call i32 @strcmp(ptr noundef %79, ptr noundef @.str.4) #17
  %81 = icmp eq i32 %80, 0
  br i1 %81, label %82, label %88

82:                                               ; preds = %78
  %83 = load ptr, ptr %9, align 8, !tbaa !4
  %84 = load i32, ptr %83, align 4, !tbaa !9
  %85 = sitofp i32 %84 to double
  store double %85, ptr %11, align 8, !tbaa !150
  %86 = load ptr, ptr %9, align 8, !tbaa !4
  %87 = getelementptr inbounds nuw i8, ptr %86, i64 4
  store ptr %87, ptr %9, align 8, !tbaa !4
  br label %88

88:                                               ; preds = %82, %78
  %89 = load ptr, ptr %7, align 8, !tbaa !4
  %90 = call i32 @strcmp(ptr noundef %89, ptr noundef @.str.4) #17
  %91 = icmp eq i32 %90, 0
  br i1 %91, label %92, label %98

92:                                               ; preds = %88
  %93 = load double, ptr %11, align 8, !tbaa !150
  %94 = fptosi double %93 to i32
  %95 = load ptr, ptr %10, align 8, !tbaa !4
  store i32 %94, ptr %95, align 4, !tbaa !9
  %96 = load ptr, ptr %10, align 8, !tbaa !4
  %97 = getelementptr inbounds nuw i8, ptr %96, i64 4
  store ptr %97, ptr %10, align 8, !tbaa !4
  br label %98

98:                                               ; preds = %92, %88
  %99 = load ptr, ptr %8, align 8, !tbaa !4
  %100 = call i32 @strcmp(ptr noundef %99, ptr noundef @.str.40) #17
  %101 = icmp eq i32 %100, 0
  br i1 %101, label %102, label %108

102:                                              ; preds = %98
  %103 = load ptr, ptr %9, align 8, !tbaa !4
  %104 = load i32, ptr %103, align 4, !tbaa !9
  %105 = sitofp i32 %104 to double
  store double %105, ptr %11, align 8, !tbaa !150
  %106 = load ptr, ptr %9, align 8, !tbaa !4
  %107 = getelementptr inbounds nuw i8, ptr %106, i64 4
  store ptr %107, ptr %9, align 8, !tbaa !4
  br label %108

108:                                              ; preds = %102, %98
  %109 = load ptr, ptr %7, align 8, !tbaa !4
  %110 = call i32 @strcmp(ptr noundef %109, ptr noundef @.str.40) #17
  %111 = icmp eq i32 %110, 0
  br i1 %111, label %112, label %118

112:                                              ; preds = %108
  %113 = load double, ptr %11, align 8, !tbaa !150
  %114 = fptosi double %113 to i32
  %115 = load ptr, ptr %10, align 8, !tbaa !4
  store i32 %114, ptr %115, align 4, !tbaa !9
  %116 = load ptr, ptr %10, align 8, !tbaa !4
  %117 = getelementptr inbounds nuw i8, ptr %116, i64 4
  store ptr %117, ptr %10, align 8, !tbaa !4
  br label %118

118:                                              ; preds = %112, %108
  %119 = load ptr, ptr %8, align 8, !tbaa !4
  %120 = call i32 @strcmp(ptr noundef %119, ptr noundef @.str.41) #17
  %121 = icmp eq i32 %120, 0
  br i1 %121, label %122, label %128

122:                                              ; preds = %118
  %123 = load ptr, ptr %9, align 8, !tbaa !4
  %124 = load float, ptr %123, align 4, !tbaa !152
  %125 = fpext float %124 to double
  store double %125, ptr %11, align 8, !tbaa !150
  %126 = load ptr, ptr %9, align 8, !tbaa !4
  %127 = getelementptr inbounds nuw i8, ptr %126, i64 4
  store ptr %127, ptr %9, align 8, !tbaa !4
  br label %128

128:                                              ; preds = %122, %118
  %129 = load ptr, ptr %7, align 8, !tbaa !4
  %130 = call i32 @strcmp(ptr noundef %129, ptr noundef @.str.41) #17
  %131 = icmp eq i32 %130, 0
  br i1 %131, label %132, label %138

132:                                              ; preds = %128
  %133 = load double, ptr %11, align 8, !tbaa !150
  %134 = fptrunc double %133 to float
  %135 = load ptr, ptr %10, align 8, !tbaa !4
  store float %134, ptr %135, align 4, !tbaa !152
  %136 = load ptr, ptr %10, align 8, !tbaa !4
  %137 = getelementptr inbounds nuw i8, ptr %136, i64 4
  store ptr %137, ptr %10, align 8, !tbaa !4
  br label %138

138:                                              ; preds = %132, %128
  %139 = load ptr, ptr %8, align 8, !tbaa !4
  %140 = call i32 @strcmp(ptr noundef %139, ptr noundef @.str.24) #17
  %141 = icmp eq i32 %140, 0
  br i1 %141, label %142, label %147

142:                                              ; preds = %138
  %143 = load ptr, ptr %9, align 8, !tbaa !4
  %144 = load double, ptr %143, align 8, !tbaa !150
  store double %144, ptr %11, align 8, !tbaa !150
  %145 = load ptr, ptr %9, align 8, !tbaa !4
  %146 = getelementptr inbounds nuw i8, ptr %145, i64 8
  store ptr %146, ptr %9, align 8, !tbaa !4
  br label %147

147:                                              ; preds = %142, %138
  %148 = load ptr, ptr %7, align 8, !tbaa !4
  %149 = call i32 @strcmp(ptr noundef %148, ptr noundef @.str.24) #17
  %150 = icmp eq i32 %149, 0
  br i1 %150, label %151, label %156

151:                                              ; preds = %147
  %152 = load double, ptr %11, align 8, !tbaa !150
  %153 = load ptr, ptr %10, align 8, !tbaa !4
  store double %152, ptr %153, align 8, !tbaa !150
  %154 = load ptr, ptr %10, align 8, !tbaa !4
  %155 = getelementptr inbounds nuw i8, ptr %154, i64 8
  store ptr %155, ptr %10, align 8, !tbaa !4
  br label %156

156:                                              ; preds = %151, %147
  br label %157

157:                                              ; preds = %156
  %158 = load i32, ptr %12, align 4, !tbaa !9
  %159 = add nsw i32 %158, 1
  store i32 %159, ptr %12, align 4, !tbaa !9
  br label %13, !llvm.loop !154

160:                                              ; preds = %17
  call void @llvm.lifetime.end.p0(i64 8, ptr %11) #16
  ret void
}