; Function Attrs: mustprogress nofree nounwind memory(readwrite, inaccessiblemem: none) uwtable
define internal fastcc void @_ZL10getElementiPKcS0_PcS1_(i32 noundef %0, ptr noundef readonly captures(none) %1, ptr noundef readonly captures(none) %2, ptr noundef readonly captures(none) %3, ptr noundef writeonly captures(none) %4) unnamed_addr #22 {
  %6 = icmp sgt i32 %0, 0
  br i1 %6, label %.lr.ph, label %._crit_edge

._crit_edge:                                      ; preds = %95, %5
  ret void

.lr.ph:                                           ; preds = %5, %95
  %.071 = phi i32 [ %96, %95 ], [ 0, %5 ]
  %.05170 = phi double [ %.7, %95 ], [ 0.000000e+00, %5 ]
  %.05269 = phi ptr [ %.759, %95 ], [ %4, %5 ]
  %.06068 = phi ptr [ %.767, %95 ], [ %3, %5 ]
  %7 = tail call i32 @strcmp(ptr noundef nonnull dereferenceable(1) %2, ptr noundef nonnull dereferenceable(5) @.str.20) #29
  %8 = icmp eq i32 %7, 0
  br i1 %8, label %9, label %13

9:                                                ; preds = %.lr.ph
  %10 = load i8, ptr %.06068, align 1, !tbaa !4
  %11 = sitofp i8 %10 to double
  %12 = getelementptr inbounds nuw i8, ptr %.06068, i64 1
  br label %13

13:                                               ; preds = %9, %.lr.ph
  %.161 = phi ptr [ %12, %9 ], [ %.06068, %.lr.ph ]
  %.1 = phi double [ %11, %9 ], [ %.05170, %.lr.ph ]
  %14 = tail call i32 @strcmp(ptr noundef nonnull dereferenceable(1) %1, ptr noundef nonnull dereferenceable(5) @.str.20) #29
  %15 = icmp eq i32 %14, 0
  br i1 %15, label %16, label %19

16:                                               ; preds = %13
  %17 = fptosi double %.1 to i8
  store i8 %17, ptr %.05269, align 1, !tbaa !4
  %18 = getelementptr inbounds nuw i8, ptr %.05269, i64 1
  br label %19

19:                                               ; preds = %16, %13
  %.153 = phi ptr [ %18, %16 ], [ %.05269, %13 ]
  %20 = tail call i32 @strcmp(ptr noundef nonnull dereferenceable(1) %2, ptr noundef nonnull dereferenceable(6) @.str.12) #29
  %21 = icmp eq i32 %20, 0
  br i1 %21, label %22, label %26

22:                                               ; preds = %19
  %23 = load i16, ptr %.161, align 2, !tbaa !81
  %24 = sitofp i16 %23 to double
  %25 = getelementptr inbounds nuw i8, ptr %.161, i64 2
  br label %26

26:                                               ; preds = %22, %19
  %.262 = phi ptr [ %25, %22 ], [ %.161, %19 ]
  %.2 = phi double [ %24, %22 ], [ %.1, %19 ]
  %27 = tail call i32 @strcmp(ptr noundef nonnull dereferenceable(1) %1, ptr noundef nonnull dereferenceable(6) @.str.12) #29
  %28 = icmp eq i32 %27, 0
  br i1 %28, label %29, label %32

29:                                               ; preds = %26
  %30 = fptosi double %.2 to i16
  store i16 %30, ptr %.153, align 2, !tbaa !81
  %31 = getelementptr inbounds nuw i8, ptr %.153, i64 2
  br label %32

32:                                               ; preds = %29, %26
  %.254 = phi ptr [ %31, %29 ], [ %.153, %26 ]
  %33 = tail call i32 @strcmp(ptr noundef nonnull dereferenceable(1) %2, ptr noundef nonnull dereferenceable(7) @.str.39) #29
  %34 = icmp eq i32 %33, 0
  br i1 %34, label %35, label %39

35:                                               ; preds = %32
  %36 = load i16, ptr %.262, align 2, !tbaa !81
  %37 = uitofp i16 %36 to double
  %38 = getelementptr inbounds nuw i8, ptr %.262, i64 2
  br label %39

39:                                               ; preds = %35, %32
  %.363 = phi ptr [ %38, %35 ], [ %.262, %32 ]
  %.3 = phi double [ %37, %35 ], [ %.2, %32 ]
  %40 = tail call i32 @strcmp(ptr noundef nonnull dereferenceable(1) %1, ptr noundef nonnull dereferenceable(7) @.str.39) #29
  %41 = icmp eq i32 %40, 0
  br i1 %41, label %42, label %45

42:                                               ; preds = %39
  %43 = fptoui double %.3 to i16
  store i16 %43, ptr %.254, align 2, !tbaa !81
  %44 = getelementptr inbounds nuw i8, ptr %.254, i64 2
  br label %45

45:                                               ; preds = %42, %39
  %.355 = phi ptr [ %44, %42 ], [ %.254, %39 ]
  %46 = tail call i32 @strcmp(ptr noundef nonnull dereferenceable(1) %2, ptr noundef nonnull dereferenceable(4) @.str.4) #29
  %47 = icmp eq i32 %46, 0
  br i1 %47, label %48, label %52

48:                                               ; preds = %45
  %49 = load i32, ptr %.363, align 4, !tbaa !76
  %50 = sitofp i32 %49 to double
  %51 = getelementptr inbounds nuw i8, ptr %.363, i64 4
  br label %52

52:                                               ; preds = %48, %45
  %.464 = phi ptr [ %51, %48 ], [ %.363, %45 ]
  %.4 = phi double [ %50, %48 ], [ %.3, %45 ]
  %53 = tail call i32 @strcmp(ptr noundef nonnull dereferenceable(1) %1, ptr noundef nonnull dereferenceable(4) @.str.4) #29
  %54 = icmp eq i32 %53, 0
  br i1 %54, label %55, label %58

55:                                               ; preds = %52
  %56 = fptosi double %.4 to i32
  store i32 %56, ptr %.355, align 4, !tbaa !76
  %57 = getelementptr inbounds nuw i8, ptr %.355, i64 4
  br label %58

58:                                               ; preds = %55, %52
  %.456 = phi ptr [ %57, %55 ], [ %.355, %52 ]
  %59 = tail call i32 @strcmp(ptr noundef nonnull dereferenceable(1) %2, ptr noundef nonnull dereferenceable(5) @.str.40) #29
  %60 = icmp eq i32 %59, 0
  br i1 %60, label %61, label %65

61:                                               ; preds = %58
  %62 = load i32, ptr %.464, align 4, !tbaa !76
  %63 = sitofp i32 %62 to double
  %64 = getelementptr inbounds nuw i8, ptr %.464, i64 4
  br label %65

65:                                               ; preds = %61, %58
  %.565 = phi ptr [ %64, %61 ], [ %.464, %58 ]
  %.5 = phi double [ %63, %61 ], [ %.4, %58 ]
  %66 = tail call i32 @strcmp(ptr noundef nonnull dereferenceable(1) %1, ptr noundef nonnull dereferenceable(5) @.str.40) #29
  %67 = icmp eq i32 %66, 0
  br i1 %67, label %68, label %71

68:                                               ; preds = %65
  %69 = fptosi double %.5 to i32
  store i32 %69, ptr %.456, align 4, !tbaa !76
  %70 = getelementptr inbounds nuw i8, ptr %.456, i64 4
  br label %71

71:                                               ; preds = %68, %65
  %.557 = phi ptr [ %70, %68 ], [ %.456, %65 ]
  %72 = tail call i32 @strcmp(ptr noundef nonnull dereferenceable(1) %2, ptr noundef nonnull dereferenceable(6) @.str.41) #29
  %73 = icmp eq i32 %72, 0
  br i1 %73, label %74, label %78

74:                                               ; preds = %71
  %75 = load float, ptr %.565, align 4, !tbaa !139
  %76 = fpext float %75 to double
  %77 = getelementptr inbounds nuw i8, ptr %.565, i64 4
  br label %78

78:                                               ; preds = %74, %71
  %.666 = phi ptr [ %77, %74 ], [ %.565, %71 ]
  %.6 = phi double [ %76, %74 ], [ %.5, %71 ]
  %79 = tail call i32 @strcmp(ptr noundef nonnull dereferenceable(1) %1, ptr noundef nonnull dereferenceable(6) @.str.41) #29
  %80 = icmp eq i32 %79, 0
  br i1 %80, label %81, label %84

81:                                               ; preds = %78
  %82 = fptrunc double %.6 to float
  store float %82, ptr %.557, align 4, !tbaa !139
  %83 = getelementptr inbounds nuw i8, ptr %.557, i64 4
  br label %84

84:                                               ; preds = %81, %78
  %.658 = phi ptr [ %83, %81 ], [ %.557, %78 ]
  %85 = tail call i32 @strcmp(ptr noundef nonnull dereferenceable(1) %2, ptr noundef nonnull dereferenceable(7) @.str.24) #29
  %86 = icmp eq i32 %85, 0
  br i1 %86, label %87, label %90

87:                                               ; preds = %84
  %88 = load double, ptr %.666, align 8, !tbaa !141
  %89 = getelementptr inbounds nuw i8, ptr %.666, i64 8
  br label %90

90:                                               ; preds = %87, %84
  %.767 = phi ptr [ %89, %87 ], [ %.666, %84 ]
  %.7 = phi double [ %88, %87 ], [ %.6, %84 ]
  %91 = tail call i32 @strcmp(ptr noundef nonnull dereferenceable(1) %1, ptr noundef nonnull dereferenceable(7) @.str.24) #29
  %92 = icmp eq i32 %91, 0
  br i1 %92, label %93, label %95

93:                                               ; preds = %90
  store double %.7, ptr %.658, align 8, !tbaa !141
  %94 = getelementptr inbounds nuw i8, ptr %.658, i64 8
  br label %95

95:                                               ; preds = %90, %93
  %.759 = phi ptr [ %94, %93 ], [ %.658, %90 ]
  %96 = add nuw nsw i32 %.071, 1
  %exitcond.not = icmp eq i32 %96, %0
  br i1 %exitcond.not, label %._crit_edge, label %.lr.ph, !llvm.loop !143
}